target datalayout = "e-m:e-p270:32:32-p271:32:32-p272:64:64-i64:64-i128:128-f80:128-n8:16:32:64-S128"
target triple = "x86_64-pc-linux-gnu"

%struct.MultirangeType = type { i32, i32, i32 }
%struct.RangeBound = type { i64, i8, i8, i8 }

; Function Attrs: nounwind uwtable
define internal zeroext i1 @range_bounds_contains(ptr noundef %0, ptr noundef %1, ptr noundef %2, ptr noundef %3, ptr noundef %4) #0 {
  %6 = alloca i1, align 1
  %7 = alloca ptr, align 8
  %8 = alloca ptr, align 8
  %9 = alloca ptr, align 8
  %10 = alloca ptr, align 8
  %11 = alloca ptr, align 8
  store ptr %0, ptr %7, align 8
  store ptr %1, ptr %8, align 8
  store ptr %2, ptr %9, align 8
  store ptr %3, ptr %10, align 8
  store ptr %4, ptr %11, align 8
  %12 = load ptr, ptr %7, align 8
  %13 = load ptr, ptr %8, align 8
  %14 = load ptr, ptr %10, align 8
  %15 = call i32 @range_cmp_bounds(ptr noundef %12, ptr noundef %13, ptr noundef %14)
  %16 = icmp sle i32 %15, 0
  br i1 %16, label %17, label %24

17:                                               ; preds = %5
  %18 = load ptr, ptr %7, align 8
  %19 = load ptr, ptr %9, align 8
  %20 = load ptr, ptr %11, align 8
  %21 = call i32 @range_cmp_bounds(ptr noundef %18, ptr noundef %19, ptr noundef %20)
  %22 = icmp sge i32 %21, 0
  br i1 %22, label %23, label %24

23:                                               ; preds = %17
  store i1 true, ptr %6, align 1
  br label %25

24:                                               ; preds = %17, %5
  store i1 false, ptr %6, align 1
  br label %25

25:                                               ; preds = %24, %23
  %26 = load i1, ptr %6, align 1
  ret i1 %26
}

; Function Attrs: nounwind uwtable
define dso_local zeroext i1 @multirange_contains_multirange_internal(ptr noundef %0, ptr noundef %1, ptr noundef %2) #0 {
  %4 = alloca i1, align 1
  %5 = alloca ptr, align 8
  %6 = alloca ptr, align 8
  %7 = alloca ptr, align 8
  %8 = alloca i32, align 4
  %9 = alloca i32, align 4
  %10 = alloca i32, align 4
  %11 = alloca i32, align 4
  %12 = alloca %struct.RangeBound, align 8
  %13 = alloca %struct.RangeBound, align 8
  %14 = alloca %struct.RangeBound, align 8
  %15 = alloca %struct.RangeBound, align 8
  %16 = alloca i32, align 4
  store ptr %0, ptr %5, align 8
  store ptr %1, ptr %6, align 8
  store ptr %2, ptr %7, align 8
  call void @llvm.lifetime.start.p0(i64 4, ptr %8) #9
  %17 = load ptr, ptr %6, align 8
  %18 = getelementptr inbounds nuw %struct.MultirangeType, ptr %17, i32 0, i32 2
  %19 = load i32, ptr %18, align 4
  store i32 %19, ptr %8, align 4
  call void @llvm.lifetime.start.p0(i64 4, ptr %9) #9
  %20 = load ptr, ptr %7, align 8
  %21 = getelementptr inbounds nuw %struct.MultirangeType, ptr %20, i32 0, i32 2
  %22 = load i32, ptr %21, align 4
  store i32 %22, ptr %9, align 4
  call void @llvm.lifetime.start.p0(i64 4, ptr %10) #9
  call void @llvm.lifetime.start.p0(i64 4, ptr %11) #9
  call void @llvm.lifetime.start.p0(i64 16, ptr %12) #9
  call void @llvm.lifetime.start.p0(i64 16, ptr %13) #9
  call void @llvm.lifetime.start.p0(i64 16, ptr %14) #9
  call void @llvm.lifetime.start.p0(i64 16, ptr %15) #9
  %23 = load i32, ptr %9, align 4
  %24 = icmp eq i32 %23, 0
  br i1 %24, label %25, label %26

25:                                               ; preds = %3
  store i1 true, ptr %4, align 1
  store i32 1, ptr %16, align 4
  br label %65

26:                                               ; preds = %3
  %27 = load i32, ptr %8, align 4
  %28 = icmp eq i32 %27, 0
  br i1 %28, label %29, label %30

29:                                               ; preds = %26
  store i1 false, ptr %4, align 1
  store i32 1, ptr %16, align 4
  br label %65

30:                                               ; preds = %26
  store i32 0, ptr %10, align 4
  %31 = load ptr, ptr %5, align 8
  %32 = load ptr, ptr %6, align 8
  %33 = load i32, ptr %10, align 4
  call void @multirange_get_bounds(ptr noundef %31, ptr noundef %32, i32 noundef %33, ptr noundef %12, ptr noundef %13)
  store i32 0, ptr %11, align 4
  br label %34

34:                                               ; preds = %61, %30
  %35 = load i32, ptr %11, align 4
  %36 = load i32, ptr %9, align 4
  %37 = icmp slt i32 %35, %36
  br i1 %37, label %38, label %64

38:                                               ; preds = %34
  %39 = load ptr, ptr %5, align 8
  %40 = load ptr, ptr %7, align 8
  %41 = load i32, ptr %11, align 4
  call void @multirange_get_bounds(ptr noundef %39, ptr noundef %40, i32 noundef %41, ptr noundef %14, ptr noundef %15)
  br label %42

42:                                               ; preds = %52, %38
  %43 = load ptr, ptr %5, align 8
  %44 = call i32 @range_cmp_bounds(ptr noundef %43, ptr noundef %13, ptr noundef %14)
  %45 = icmp slt i32 %44, 0
  br i1 %45, label %46, label %56

46:                                               ; preds = %42
  %47 = load i32, ptr %10, align 4
  %48 = add i32 %47, 1
  store i32 %48, ptr %10, align 4
  %49 = load i32, ptr %8, align 4
  %50 = icmp sge i32 %48, %49
  br i1 %50, label %51, label %52

51:                                               ; preds = %46
  store i1 false, ptr %4, align 1
  store i32 1, ptr %16, align 4
  br label %65

52:                                               ; preds = %46
  %53 = load ptr, ptr %5, align 8
  %54 = load ptr, ptr %6, align 8
  %55 = load i32, ptr %10, align 4
  call void @multirange_get_bounds(ptr noundef %53, ptr noundef %54, i32 noundef %55, ptr noundef %12, ptr noundef %13)
  br label %42, !llvm.loop !31

56:                                               ; preds = %42
  %57 = load ptr, ptr %5, align 8
  %58 = call zeroext i1 @range_bounds_contains(ptr noundef %57, ptr noundef %12, ptr noundef %13, ptr noundef %14, ptr noundef %15)
  br i1 %58, label %60, label %59

59:                                               ; preds = %56
  store i1 false, ptr %4, align 1
  store i32 1, ptr %16, align 4
  br label %65

60:                                               ; preds = %56
  br label %61

61:                                               ; preds = %60
  %62 = load i32, ptr %11, align 4
  %63 = add i32 %62, 1
  store i32 %63, ptr %11, align 4
  br label %34, !llvm.loop !32

64:                                               ; preds = %34
  store i1 true, ptr %4, align 1
  store i32 1, ptr %16, align 4
  br label %65

65:                                               ; preds = %64, %59, %51, %29, %25
  call void @llvm.lifetime.end.p0(i64 16, ptr %15) #9
  call void @llvm.lifetime.end.p0(i64 16, ptr %14) #9
  call void @llvm.lifetime.end.p0(i64 16, ptr %13) #9
  call void @llvm.lifetime.end.p0(i64 16, ptr %12) #9
  call void @llvm.lifetime.end.p0(i64 4, ptr %11) #9
  call void @llvm.lifetime.end.p0(i64 4, ptr %10) #9
  call void @llvm.lifetime.end.p0(i64 4, ptr %9) #9
  call void @llvm.lifetime.end.p0(i64 4, ptr %8) #9
  %66 = load i1, ptr %4, align 1
  ret i1 %66
}