; Function Attrs: nounwind uwtable
define dso_local noundef zeroext i1 @multirange_contains_multirange_internal(ptr noundef %0, ptr noundef %1, ptr noundef %2) local_unnamed_addr #0 {
  %4 = alloca %struct.RangeBound, align 8
  %5 = alloca %struct.RangeBound, align 8
  %6 = alloca %struct.RangeBound, align 8
  %7 = alloca %struct.RangeBound, align 8
  %8 = getelementptr inbounds nuw i8, ptr %1, i64 8
  %9 = load i32, ptr %8, align 4
  %10 = getelementptr inbounds nuw i8, ptr %2, i64 8
  %11 = load i32, ptr %10, align 4
  call void @llvm.lifetime.start.p0(i64 16, ptr nonnull %4) #11
  call void @llvm.lifetime.start.p0(i64 16, ptr nonnull %5) #11
  call void @llvm.lifetime.start.p0(i64 16, ptr nonnull %6) #11
  call void @llvm.lifetime.start.p0(i64 16, ptr nonnull %7) #11
  %12 = icmp eq i32 %11, 0
  br i1 %12, label %range_bounds_contains.exit, label %13

13:                                               ; preds = %3
  %14 = icmp eq i32 %9, 0
  br i1 %14, label %range_bounds_contains.exit, label %15

15:                                               ; preds = %13
  call void @multirange_get_bounds(ptr noundef %0, ptr noundef nonnull %1, i32 noundef 0, ptr noundef nonnull %4, ptr noundef nonnull %5)
  %16 = icmp sgt i32 %11, 0
  br i1 %16, label %.lr.ph32, label %range_bounds_contains.exit

17:                                               ; preds = %27
  %18 = add nuw nsw i32 %.030, 1
  %exitcond.not = icmp eq i32 %18, %11
  br i1 %exitcond.not, label %range_bounds_contains.exit, label %.lr.ph32, !llvm.loop !37

.lr.ph32:                                         ; preds = %15, %17
  %.030 = phi i32 [ %18, %17 ], [ 0, %15 ]
  %.02029 = phi i32 [ %.1.lcssa, %17 ], [ 0, %15 ]
  call void @multirange_get_bounds(ptr noundef %0, ptr noundef %2, i32 noundef %.030, ptr noundef nonnull %6, ptr noundef nonnull %7)
  %19 = call i32 @range_cmp_bounds(ptr noundef %0, ptr noundef nonnull %5, ptr noundef nonnull %6) #11
  %20 = icmp slt i32 %19, 0
  br i1 %20, label %.lr.ph, label %._crit_edge

.lr.ph:                                           ; preds = %.lr.ph32, %22
  %.128 = phi i32 [ %21, %22 ], [ %.02029, %.lr.ph32 ]
  %21 = add i32 %.128, 1
  %.not = icmp slt i32 %21, %9
  br i1 %.not, label %22, label %range_bounds_contains.exit

22:                                               ; preds = %.lr.ph
  call void @multirange_get_bounds(ptr noundef %0, ptr noundef nonnull %1, i32 noundef %21, ptr noundef nonnull %4, ptr noundef nonnull %5)
  %23 = call i32 @range_cmp_bounds(ptr noundef %0, ptr noundef nonnull %5, ptr noundef nonnull %6) #11
  %24 = icmp slt i32 %23, 0
  br i1 %24, label %.lr.ph, label %._crit_edge, !llvm.loop !38

._crit_edge:                                      ; preds = %22, %.lr.ph32
  %.1.lcssa = phi i32 [ %.02029, %.lr.ph32 ], [ %21, %22 ]
  %25 = call i32 @range_cmp_bounds(ptr noundef %0, ptr noundef nonnull %4, ptr noundef nonnull %6) #11
  %26 = icmp slt i32 %25, 1
  br i1 %26, label %27, label %range_bounds_contains.exit

27:                                               ; preds = %._crit_edge
  %28 = call i32 @range_cmp_bounds(ptr noundef %0, ptr noundef nonnull %5, ptr noundef nonnull %7) #11
  %29 = icmp sgt i32 %28, -1
  br i1 %29, label %17, label %range_bounds_contains.exit

range_bounds_contains.exit:                       ; preds = %17, %._crit_edge, %27, %.lr.ph, %15, %13, %3
  %.021 = phi i1 [ true, %3 ], [ false, %13 ], [ true, %15 ], [ false, %.lr.ph ], [ true, %17 ], [ false, %._crit_edge ], [ false, %27 ]
  call void @llvm.lifetime.end.p0(i64 16, ptr nonnull %7) #11
  call void @llvm.lifetime.end.p0(i64 16, ptr nonnull %6) #11
  call void @llvm.lifetime.end.p0(i64 16, ptr nonnull %5) #11
  call void @llvm.lifetime.end.p0(i64 16, ptr nonnull %4) #11
  ret i1 %.021
}